target datalayout = "e-m:e-p270:32:32-p271:32:32-p272:64:64-i64:64-i128:128-f80:128-n8:16:32:64-S128"
target triple = "x86_64-pc-linux-gnu"

%struct.archive_string = type { ptr, i64, i64 }
%struct.tree = type { ptr, ptr, ptr, ptr, i32, i32, i32, %struct.archive_string, ptr, i64, i32, i32, i32, i32, i32, %struct.stat, %struct.stat, i32, i32, %struct.restore_time, ptr, ptr, i32, i32, i8, i8, ptr, ptr, i32, i32, i32, i32, i32, i32, i64, i64, ptr, i64 }
%struct.stat = type { i64, i64, i64, i32, i32, i32, i32, i64, i64, i64, i64, %struct.timespec, %struct.timespec, %struct.timespec, [3 x i64] }
%struct.timespec = type { i64, i64 }
%struct.restore_time = type { ptr, i64, i64, i64, i64, i32, i32 }
%struct.tree_entry = type { i32, ptr, ptr, %struct.archive_string, i64, i64, i64, i32, i32, i32, %struct.restore_time }

@.str.40 = private unnamed_addr constant [14 x i8] c"Out of memory\00", align 1

; Function Attrs: nounwind uwtable
define internal void @tree_push(ptr noundef %0, ptr noundef %1, i32 noundef %2, i64 noundef %3, i64 noundef %4, ptr noundef %5) #0 {
  %7 = alloca ptr, align 8
  %8 = alloca ptr, align 8
  %9 = alloca i32, align 4
  %10 = alloca i64, align 8
  %11 = alloca i64, align 8
  %12 = alloca ptr, align 8
  %13 = alloca ptr, align 8
  store ptr %0, ptr %7, align 8
  store ptr %1, ptr %8, align 8
  store i32 %2, ptr %9, align 4
  store i64 %3, ptr %10, align 8
  store i64 %4, ptr %11, align 8
  store ptr %5, ptr %12, align 8
  %14 = call noalias ptr @calloc(i64 noundef 1, i64 noundef 136) #9
  store ptr %14, ptr %13, align 8
  %15 = load ptr, ptr %13, align 8
  %16 = icmp eq ptr %15, null
  br i1 %16, label %17, label %18

17:                                               ; preds = %6
  call void @__archive_errx(i32 noundef 1, ptr noundef @.str.40) #11
  unreachable

18:                                               ; preds = %6
  %19 = load ptr, ptr %7, align 8
  %20 = getelementptr inbounds %struct.tree, ptr %19, i32 0, i32 0
  %21 = load ptr, ptr %20, align 8
  %22 = load ptr, ptr %13, align 8
  %23 = getelementptr inbounds %struct.tree_entry, ptr %22, i32 0, i32 1
  store ptr %21, ptr %23, align 8
  %24 = load ptr, ptr %7, align 8
  %25 = getelementptr inbounds %struct.tree, ptr %24, i32 0, i32 1
  %26 = load ptr, ptr %25, align 8
  %27 = load ptr, ptr %13, align 8
  %28 = getelementptr inbounds %struct.tree_entry, ptr %27, i32 0, i32 2
  store ptr %26, ptr %28, align 8
  %29 = load ptr, ptr %13, align 8
  %30 = getelementptr inbounds %struct.tree_entry, ptr %29, i32 0, i32 2
  %31 = load ptr, ptr %30, align 8
  %32 = icmp ne ptr %31, null
  br i1 %32, label %33, label %42

33:                                               ; preds = %18
  %34 = load ptr, ptr %13, align 8
  %35 = getelementptr inbounds %struct.tree_entry, ptr %34, i32 0, i32 2
  %36 = load ptr, ptr %35, align 8
  %37 = getelementptr inbounds %struct.tree_entry, ptr %36, i32 0, i32 0
  %38 = load i32, ptr %37, align 8
  %39 = add nsw i32 %38, 1
  %40 = load ptr, ptr %13, align 8
  %41 = getelementptr inbounds %struct.tree_entry, ptr %40, i32 0, i32 0
  store i32 %39, ptr %41, align 8
  br label %42

42:                                               ; preds = %33, %18
  %43 = load ptr, ptr %13, align 8
  %44 = load ptr, ptr %7, align 8
  %45 = getelementptr inbounds %struct.tree, ptr %44, i32 0, i32 0
  store ptr %43, ptr %45, align 8
  br label %46

46:                                               ; preds = %42
  %47 = load ptr, ptr %13, align 8
  %48 = getelementptr inbounds %struct.tree_entry, ptr %47, i32 0, i32 3
  %49 = getelementptr inbounds %struct.archive_string, ptr %48, i32 0, i32 0
  store ptr null, ptr %49, align 8
  %50 = load ptr, ptr %13, align 8
  %51 = getelementptr inbounds %struct.tree_entry, ptr %50, i32 0, i32 3
  %52 = getelementptr inbounds %struct.archive_string, ptr %51, i32 0, i32 1
  store i64 0, ptr %52, align 8
  %53 = load ptr, ptr %13, align 8
  %54 = getelementptr inbounds %struct.tree_entry, ptr %53, i32 0, i32 3
  %55 = getelementptr inbounds %struct.archive_string, ptr %54, i32 0, i32 2
  store i64 0, ptr %55, align 8
  br label %56

56:                                               ; preds = %46
  %57 = load ptr, ptr %13, align 8
  %58 = getelementptr inbounds %struct.tree_entry, ptr %57, i32 0, i32 9
  store i32 -1, ptr %58, align 8
  %59 = load ptr, ptr %13, align 8
  %60 = getelementptr inbounds %struct.tree_entry, ptr %59, i32 0, i32 3
  %61 = getelementptr inbounds %struct.archive_string, ptr %60, i32 0, i32 1
  store i64 0, ptr %61, align 8
  %62 = load ptr, ptr %13, align 8
  %63 = getelementptr inbounds %struct.tree_entry, ptr %62, i32 0, i32 3
  %64 = load ptr, ptr %8, align 8
  %65 = load ptr, ptr %8, align 8
  %66 = icmp eq ptr %65, null
  br i1 %66, label %67, label %68

67:                                               ; preds = %56
  br label %71

68:                                               ; preds = %56
  %69 = load ptr, ptr %8, align 8
  %70 = call i64 @strlen(ptr noundef %69) #12
  br label %71

71:                                               ; preds = %68, %67
  %72 = phi i64 [ 0, %67 ], [ %70, %68 ]
  %73 = call ptr @archive_strncat(ptr noundef %63, ptr noundef %64, i64 noundef %72)
  %74 = load ptr, ptr %13, align 8
  %75 = getelementptr inbounds %struct.tree_entry, ptr %74, i32 0, i32 7
  store i32 56, ptr %75, align 8
  %76 = load i32, ptr %9, align 4
  %77 = load ptr, ptr %13, align 8
  %78 = getelementptr inbounds %struct.tree_entry, ptr %77, i32 0, i32 8
  store i32 %76, ptr %78, align 4
  %79 = load i64, ptr %10, align 8
  %80 = load ptr, ptr %13, align 8
  %81 = getelementptr inbounds %struct.tree_entry, ptr %80, i32 0, i32 5
  store i64 %79, ptr %81, align 8
  %82 = load i64, ptr %11, align 8
  %83 = load ptr, ptr %13, align 8
  %84 = getelementptr inbounds %struct.tree_entry, ptr %83, i32 0, i32 6
  store i64 %82, ptr %84, align 8
  %85 = load ptr, ptr %7, align 8
  %86 = getelementptr inbounds %struct.tree, ptr %85, i32 0, i32 9
  %87 = load i64, ptr %86, align 8
  %88 = load ptr, ptr %13, align 8
  %89 = getelementptr inbounds %struct.tree_entry, ptr %88, i32 0, i32 4
  store i64 %87, ptr %89, align 8
  %90 = load ptr, ptr %13, align 8
  %91 = getelementptr inbounds %struct.tree_entry, ptr %90, i32 0, i32 3
  %92 = getelementptr inbounds %struct.archive_string, ptr %91, i32 0, i32 0
  %93 = load ptr, ptr %92, align 8
  %94 = load ptr, ptr %13, align 8
  %95 = getelementptr inbounds %struct.tree_entry, ptr %94, i32 0, i32 10
  %96 = getelementptr inbounds %struct.restore_time, ptr %95, i32 0, i32 0
  store ptr %93, ptr %96, align 8
  %97 = load ptr, ptr %12, align 8
  %98 = icmp ne ptr %97, null
  br i1 %98, label %99, label %136

99:                                               ; preds = %71
  %100 = load ptr, ptr %12, align 8
  %101 = getelementptr inbounds %struct.restore_time, ptr %100, i32 0, i32 1
  %102 = load i64, ptr %101, align 8
  %103 = load ptr, ptr %13, align 8
  %104 = getelementptr inbounds %struct.tree_entry, ptr %103, i32 0, i32 10
  %105 = getelementptr inbounds %struct.restore_time, ptr %104, i32 0, i32 1
  store i64 %102, ptr %105, align 8
  %106 = load ptr, ptr %12, align 8
  %107 = getelementptr inbounds %struct.restore_time, ptr %106, i32 0, i32 2
  %108 = load i64, ptr %107, align 8
  %109 = load ptr, ptr %13, align 8
  %110 = getelementptr inbounds %struct.tree_entry, ptr %109, i32 0, i32 10
  %111 = getelementptr inbounds %struct.restore_time, ptr %110, i32 0, i32 2
  store i64 %108, ptr %111, align 8
  %112 = load ptr, ptr %12, align 8
  %113 = getelementptr inbounds %struct.restore_time, ptr %112, i32 0, i32 3
  %114 = load i64, ptr %113, align 8
  %115 = load ptr, ptr %13, align 8
  %116 = getelementptr inbounds %struct.tree_entry, ptr %115, i32 0, i32 10
  %117 = getelementptr inbounds %struct.restore_time, ptr %116, i32 0, i32 3
  store i64 %114, ptr %117, align 8
  %118 = load ptr, ptr %12, align 8
  %119 = getelementptr inbounds %struct.restore_time, ptr %118, i32 0, i32 4
  %120 = load i64, ptr %119, align 8
  %121 = load ptr, ptr %13, align 8
  %122 = getelementptr inbounds %struct.tree_entry, ptr %121, i32 0, i32 10
  %123 = getelementptr inbounds %struct.restore_time, ptr %122, i32 0, i32 4
  store i64 %120, ptr %123, align 8
  %124 = load ptr, ptr %12, align 8
  %125 = getelementptr inbounds %struct.restore_time, ptr %124, i32 0, i32 5
  %126 = load i32, ptr %125, align 8
  %127 = load ptr, ptr %13, align 8
  %128 = getelementptr inbounds %struct.tree_entry, ptr %127, i32 0, i32 10
  %129 = getelementptr inbounds %struct.restore_time, ptr %128, i32 0, i32 5
  store i32 %126, ptr %129, align 8
  %130 = load ptr, ptr %12, align 8
  %131 = getelementptr inbounds %struct.restore_time, ptr %130, i32 0, i32 6
  %132 = load i32, ptr %131, align 4
  %133 = load ptr, ptr %13, align 8
  %134 = getelementptr inbounds %struct.tree_entry, ptr %133, i32 0, i32 10
  %135 = getelementptr inbounds %struct.restore_time, ptr %134, i32 0, i32 6
  store i32 %132, ptr %135, align 4
  br label %136

136:                                              ; preds = %99, %71
  ret void
}