; Function Attrs: nounwind uwtable
define internal fastcc void @tree_push(ptr noundef captures(none) %0, ptr noundef %1, i32 noundef %2, i64 noundef %3, i64 noundef %4, ptr noundef readonly %5) unnamed_addr #0 {
  %7 = tail call noalias dereferenceable_or_null(136) ptr @calloc(i64 noundef 1, i64 noundef 136) #18
  %8 = icmp eq ptr %7, null
  br i1 %8, label %9, label %10

9:                                                ; preds = %6
  tail call void @__archive_errx(i32 noundef 1, ptr noundef nonnull @.str.40) #19
  unreachable

10:                                               ; preds = %6
  %11 = load ptr, ptr %0, align 8
  %12 = getelementptr inbounds nuw i8, ptr %7, i64 8
  store ptr %11, ptr %12, align 8
  %13 = getelementptr inbounds nuw i8, ptr %0, i64 8
  %14 = load ptr, ptr %13, align 8
  %15 = getelementptr inbounds nuw i8, ptr %7, i64 16
  store ptr %14, ptr %15, align 8
  %.not = icmp eq ptr %14, null
  br i1 %.not, label %19, label %16

16:                                               ; preds = %10
  %17 = load i32, ptr %14, align 8
  %18 = add nsw i32 %17, 1
  store i32 %18, ptr %7, align 8
  br label %19

19:                                               ; preds = %16, %10
  store ptr %7, ptr %0, align 8
  %20 = getelementptr inbounds nuw i8, ptr %7, i64 24
  %21 = getelementptr inbounds nuw i8, ptr %7, i64 32
  %22 = getelementptr inbounds nuw i8, ptr %7, i64 80
  store i32 -1, ptr %22, align 8
  store i64 0, ptr %21, align 8
  %23 = icmp eq ptr %1, null
  br i1 %23, label %26, label %24

24:                                               ; preds = %19
  %25 = tail call i64 @strlen(ptr noundef nonnull dereferenceable(1) %1) #20
  br label %26

26:                                               ; preds = %19, %24
  %27 = phi i64 [ %25, %24 ], [ 0, %19 ]
  %28 = tail call ptr @archive_strncat(ptr noundef nonnull %20, ptr noundef %1, i64 noundef %27) #17
  %29 = getelementptr inbounds nuw i8, ptr %7, i64 72
  store i32 56, ptr %29, align 8
  %30 = getelementptr inbounds nuw i8, ptr %7, i64 76
  store i32 %2, ptr %30, align 4
  %31 = getelementptr inbounds nuw i8, ptr %7, i64 56
  store i64 %3, ptr %31, align 8
  %32 = getelementptr inbounds nuw i8, ptr %7, i64 64
  store i64 %4, ptr %32, align 8
  %33 = getelementptr inbounds nuw i8, ptr %0, i64 80
  %34 = load i64, ptr %33, align 8
  %35 = getelementptr inbounds nuw i8, ptr %7, i64 48
  store i64 %34, ptr %35, align 8
  %36 = load ptr, ptr %20, align 8
  %37 = getelementptr inbounds nuw i8, ptr %7, i64 88
  store ptr %36, ptr %37, align 8
  %.not45 = icmp eq ptr %5, null
  br i1 %.not45, label %57, label %38

38:                                               ; preds = %26
  %39 = getelementptr inbounds nuw i8, ptr %5, i64 8
  %40 = load i64, ptr %39, align 8
  %41 = getelementptr inbounds nuw i8, ptr %7, i64 96
  store i64 %40, ptr %41, align 8
  %42 = getelementptr inbounds nuw i8, ptr %5, i64 16
  %43 = load i64, ptr %42, align 8
  %44 = getelementptr inbounds nuw i8, ptr %7, i64 104
  store i64 %43, ptr %44, align 8
  %45 = getelementptr inbounds nuw i8, ptr %5, i64 24
  %46 = load i64, ptr %45, align 8
  %47 = getelementptr inbounds nuw i8, ptr %7, i64 112
  store i64 %46, ptr %47, align 8
  %48 = getelementptr inbounds nuw i8, ptr %5, i64 32
  %49 = load i64, ptr %48, align 8
  %50 = getelementptr inbounds nuw i8, ptr %7, i64 120
  store i64 %49, ptr %50, align 8
  %51 = getelementptr inbounds nuw i8, ptr %5, i64 40
  %52 = load i32, ptr %51, align 8
  %53 = getelementptr inbounds nuw i8, ptr %7, i64 128
  store i32 %52, ptr %53, align 8
  %54 = getelementptr inbounds nuw i8, ptr %5, i64 44
  %55 = load i32, ptr %54, align 4
  %56 = getelementptr inbounds nuw i8, ptr %7, i64 132
  store i32 %55, ptr %56, align 4
  br label %57

57:                                               ; preds = %38, %26
  ret void
}